ccopy_reg
_reconstructor
p1
(csklearn.pipeline
Pipeline
p2
c__builtin__
object
p3
NtRp4
(dp5
S'_sklearn_version'
p6
S'0.18.1'
p7
sS'steps'
p8
(lp9
(S'standardscaler'
g1
(csklearn.preprocessing.data
StandardScaler
p10
g3
NtRp11
(dp12
S'copy'
p13
I01
sg6
g7
sS'with_mean'
p14
I01
sS'with_std'
p15
I01
sbtp16
a(S'linearsvc'
g1
(csklearn.svm.classes
LinearSVC
p17
g3
NtRp18
(dp19
S'loss'
p20
S'squared_hinge'
p21
sS'C'
F0.001
sS'verbose'
p22
I0
sS'fit_intercept'
p23
I01
sS'max_iter'
p24
I1000
sS'penalty'
p25
S'l2'
p26
sS'multi_class'
p27
S'ovr'
p28
sS'random_state'
p29
Nsg6
g7
sS'dual'
p30
I00
sS'tol'
p31
F0.0001
sS'class_weight'
p32
S'balanced'
p33
sS'intercept_scaling'
p34
I1
sbtp35
asb.